target datalayout = "e-m:e-p270:32:32-p271:32:32-p272:64:64-i64:64-i128:128-f80:128-n8:16:32:64-S128"
target triple = "x86_64-pc-linux-gnu"

%class.TreeNodeData = type <{ i32, i8, [3 x i8] }>
%class.OctNode = type { i64, ptr, ptr, %class.TreeNodeData }

; Function Attrs: mustprogress nounwind uwtable
define linkonce_odr noundef i32 @_ZN10BinaryNode11CornerIndexEiiii(i32 noundef %0, i32 noundef %1, i32 noundef %2, i32 noundef %3) #4 comdat align 2 {
  %5 = alloca i32, align 4
  %6 = alloca i32, align 4
  %7 = alloca i32, align 4
  %8 = alloca i32, align 4
  store i32 %0, ptr %5, align 4
  store i32 %1, ptr %6, align 4
  store i32 %2, ptr %7, align 4
  store i32 %3, ptr %8, align 4
  %9 = load i32, ptr %7, align 4
  %10 = load i32, ptr %8, align 4
  %11 = add nsw i32 %9, %10
  %12 = load i32, ptr %5, align 4
  %13 = load i32, ptr %6, align 4
  %14 = sub nsw i32 %12, %13
  %15 = shl i32 %11, %14
  ret i32 %15
}

; Function Attrs: mustprogress nounwind uwtable
define linkonce_odr void @_ZNK7OctNodeI12TreeNodeDataE14depthAndOffsetERiPi(ptr noundef nonnull align 8 dereferenceable(32) %0, ptr noundef nonnull align 4 dereferenceable(4) %1, ptr noundef %2) #4 comdat align 2 {
  %4 = alloca ptr, align 8
  %5 = alloca ptr, align 8
  %6 = alloca ptr, align 8
  store ptr %0, ptr %4, align 8
  store ptr %1, ptr %5, align 8
  store ptr %2, ptr %6, align 8
  %7 = load ptr, ptr %4, align 8
  %8 = getelementptr inbounds %class.OctNode, ptr %7, i32 0, i32 0
  %9 = load i64, ptr %8, align 8
  %10 = and i64 %9, 31
  %11 = trunc i64 %10 to i32
  %12 = load ptr, ptr %5, align 8
  store i32 %11, ptr %12, align 4
  %13 = getelementptr inbounds %class.OctNode, ptr %7, i32 0, i32 0
  %14 = load i64, ptr %13, align 8
  %15 = lshr i64 %14, 5
  %16 = and i64 %15, 524287
  %17 = trunc i64 %16 to i32
  %18 = load ptr, ptr %6, align 8
  %19 = getelementptr inbounds i32, ptr %18, i64 0
  store i32 %17, ptr %19, align 4
  %20 = getelementptr inbounds %class.OctNode, ptr %7, i32 0, i32 0
  %21 = load i64, ptr %20, align 8
  %22 = lshr i64 %21, 24
  %23 = and i64 %22, 524287
  %24 = trunc i64 %23 to i32
  %25 = load ptr, ptr %6, align 8
  %26 = getelementptr inbounds i32, ptr %25, i64 1
  store i32 %24, ptr %26, align 4
  %27 = getelementptr inbounds %class.OctNode, ptr %7, i32 0, i32 0
  %28 = load i64, ptr %27, align 8
  %29 = lshr i64 %28, 43
  %30 = and i64 %29, 524287
  %31 = trunc i64 %30 to i32
  %32 = load ptr, ptr %6, align 8
  %33 = getelementptr inbounds i32, ptr %32, i64 2
  store i32 %31, ptr %33, align 4
  ret void
}

; Function Attrs: mustprogress uwtable
define noundef i64 @_ZN10VertexData11CenterIndexEPK7OctNodeI12TreeNodeDataEiPi(ptr noundef %0, i32 noundef %1, ptr noundef %2) #5 align 2 {
  %4 = alloca ptr, align 8
  %5 = alloca i32, align 4
  %6 = alloca ptr, align 8
  %7 = alloca i32, align 4
  %8 = alloca [3 x i32], align 4
  %9 = alloca i32, align 4
  store ptr %0, ptr %4, align 8
  store i32 %1, ptr %5, align 4
  store ptr %2, ptr %6, align 8
  %10 = load ptr, ptr %4, align 8
  %11 = getelementptr inbounds [3 x i32], ptr %8, i64 0, i64 0
  call void @_ZNK7OctNodeI12TreeNodeDataE14depthAndOffsetERiPi(ptr noundef nonnull align 8 dereferenceable(32) %10, ptr noundef nonnull align 4 dereferenceable(4) %7, ptr noundef %11)
  store i32 0, ptr %9, align 4
  br label %12

12:                                               ; preds = %30, %3
  %13 = load i32, ptr %9, align 4
  %14 = icmp slt i32 %13, 3
  br i1 %14, label %15, label %33

15:                                               ; preds = %12
  %16 = load i32, ptr %5, align 4
  %17 = add nsw i32 %16, 1
  %18 = load i32, ptr %7, align 4
  %19 = add nsw i32 %18, 1
  %20 = load i32, ptr %9, align 4
  %21 = sext i32 %20 to i64
  %22 = getelementptr inbounds [3 x i32], ptr %8, i64 0, i64 %21
  %23 = load i32, ptr %22, align 4
  %24 = shl i32 %23, 1
  %25 = call noundef i32 @_ZN10BinaryNode11CornerIndexEiiii(i32 noundef %17, i32 noundef %19, i32 noundef %24, i32 noundef 1)
  %26 = load ptr, ptr %6, align 8
  %27 = load i32, ptr %9, align 4
  %28 = sext i32 %27 to i64
  %29 = getelementptr inbounds i32, ptr %26, i64 %28
  store i32 %25, ptr %29, align 4
  br label %30

30:                                               ; preds = %15
  %31 = load i32, ptr %9, align 4
  %32 = add nsw i32 %31, 1
  store i32 %32, ptr %9, align 4
  br label %12, !llvm.loop !11

33:                                               ; preds = %12
  %34 = load ptr, ptr %6, align 8
  %35 = getelementptr inbounds i32, ptr %34, i64 0
  %36 = load i32, ptr %35, align 4
  %37 = sext i32 %36 to i64
  %38 = load ptr, ptr %6, align 8
  %39 = getelementptr inbounds i32, ptr %38, i64 1
  %40 = load i32, ptr %39, align 4
  %41 = sext i32 %40 to i64
  %42 = shl i64 %41, 21
  %43 = or i64 %37, %42
  %44 = load ptr, ptr %6, align 8
  %45 = getelementptr inbounds i32, ptr %44, i64 2
  %46 = load i32, ptr %45, align 4
  %47 = sext i32 %46 to i64
  %48 = shl i64 %47, 42
  %49 = or i64 %43, %48
  ret i64 %49
}