; Function Attrs: mustprogress nofree norecurse nosync nounwind memory(argmem: readwrite) uwtable
define noundef i64 @_ZN10VertexData11CenterIndexEPK7OctNodeI12TreeNodeDataEiPi(ptr nocapture noundef readonly %0, i32 noundef %1, ptr nocapture noundef %2) local_unnamed_addr #22 align 2 {
  %4 = alloca [3 x i32], align 4
  %5 = load i64, ptr %0, align 8
  %6 = trunc i64 %5 to i32
  %7 = and i32 %6, 31
  %8 = lshr i32 %6, 5
  %9 = and i32 %8, 524287
  store i32 %9, ptr %4, align 4
  %10 = lshr i64 %5, 24
  %11 = trunc i64 %10 to i32
  %12 = and i32 %11, 524287
  %13 = getelementptr inbounds i8, ptr %4, i64 4
  store i32 %12, ptr %13, align 4
  %14 = lshr i64 %5, 43
  %15 = trunc i64 %14 to i32
  %16 = and i32 %15, 524287
  %17 = getelementptr inbounds i8, ptr %4, i64 8
  store i32 %16, ptr %17, align 4
  %18 = sub i32 %1, %7
  br label %19

19:                                               ; preds = %3, %19
  %indvars.iv = phi i64 [ 0, %3 ], [ %indvars.iv.next, %19 ]
  %20 = getelementptr inbounds [3 x i32], ptr %4, i64 0, i64 %indvars.iv
  %21 = load i32, ptr %20, align 4
  %22 = shl i32 %21, 1
  %23 = or disjoint i32 %22, 1
  %24 = shl i32 %23, %18
  %25 = getelementptr inbounds i32, ptr %2, i64 %indvars.iv
  store i32 %24, ptr %25, align 4
  %indvars.iv.next = add nuw nsw i64 %indvars.iv, 1
  %exitcond.not = icmp eq i64 %indvars.iv.next, 3
  br i1 %exitcond.not, label %26, label %19, !llvm.loop !10

26:                                               ; preds = %19
  %27 = load i32, ptr %2, align 4
  %28 = sext i32 %27 to i64
  %29 = getelementptr inbounds i8, ptr %2, i64 4
  %30 = load i32, ptr %29, align 4
  %31 = sext i32 %30 to i64
  %32 = shl nsw i64 %31, 21
  %33 = or i64 %32, %28
  %34 = getelementptr inbounds i8, ptr %2, i64 8
  %35 = load i32, ptr %34, align 4
  %36 = zext i32 %35 to i64
  %37 = shl i64 %36, 42
  %38 = or i64 %33, %37
  ret i64 %38
}